Certificate:
    Data:
        Version: 3 (0x2)
        Serial Number: 5297 (0x14b1)
        Signature Algorithm: sha1WithRSAEncryption
        Issuer: C=US, ST=NY, L=New York, O=Bloomberg LP, OU=CTO Office, CN=Bloomberg LP CA/emailAddress=open-tech@bloomberg.net
        Validity
            Not Before: Apr 17 06:00:00 2015 GMT
            Not After : Apr 21 06:00:00 2015 GMT
        Subject: C=US, ST=NY, L=New York, O=Bloomberg LP, OU=CTO Office, CN=hackru_spring_2015_075/emailAddress=open-tech@bloomberg.net
        Subject Public Key Info:
            Public Key Algorithm: rsaEncryption
            RSA Public Key: (1024 bit)
                Modulus (1024 bit):
                    00:cf:23:51:2d:f4:65:5e:1d:11:44:d9:d2:c3:f7:
                    64:cb:40:ff:84:a4:db:f1:6d:9e:bf:84:94:d4:8b:
                    31:23:65:f5:76:a4:cc:73:9b:b6:ba:05:be:14:14:
                    1e:fd:58:87:ae:fc:6c:37:05:52:19:be:24:be:93:
                    96:d1:31:73:27:22:bb:15:c1:aa:6d:1d:01:22:a3:
                    85:bb:19:e3:6b:44:45:0f:4d:3d:df:88:b5:24:c6:
                    09:f8:87:c8:fc:5a:20:d5:5f:01:0f:4d:a8:94:b4:
                    2e:57:24:7d:b4:18:3e:14:73:bb:d9:d2:ed:d6:24:
                    07:20:b1:6a:c3:bf:4e:17:cb
                Exponent: 65537 (0x10001)
        X509v3 extensions:
            X509v3 Basic Constraints: 
                CA:FALSE
            Netscape Comment: 
                Easy-RSA Generated Certificate
            X509v3 Subject Key Identifier: 
                2B:91:4E:8D:76:23:4D:B4:72:96:46:2B:57:07:59:66:F4:6C:97:FE
            X509v3 Authority Key Identifier: 
                keyid:F3:21:76:1F:DA:B5:E7:03:FC:ED:D7:71:B8:1C:55:2D:7E:65:5F:14
                DirName:/C=US/ST=NY/L=New York/O=Bloomberg LP/OU=CTO Office/CN=Bloomberg LP CA/emailAddress=open-tech@bloomberg.net
                serial:81:F3:7A:1C:BC:C6:E8:A2

            X509v3 Extended Key Usage: 
                TLS Web Client Authentication
            X509v3 Key Usage: 
                Digital Signature
    Signature Algorithm: sha1WithRSAEncryption
        35:f9:db:b9:2f:fe:88:e6:05:41:a8:b4:fe:ef:a7:10:52:06:
        ff:1e:d2:c0:f6:0f:5b:66:40:e2:98:3d:1e:86:1e:c5:54:61:
        b5:57:ad:15:cb:fa:58:d9:5f:59:fa:07:9e:a3:88:e4:13:0a:
        7e:fe:52:d3:5f:17:26:89:fc:91:e7:a7:52:12:cc:07:e0:df:
        72:37:bd:f6:8b:e7:6c:04:71:b6:7e:e9:f2:ee:5d:dc:30:81:
        6e:86:ef:5f:8a:4b:19:b6:3b:82:c6:50:b1:24:73:e7:27:75:
        e2:3b:33:98:93:e0:ac:eb:ac:f5:d2:ab:b6:19:ce:c6:bf:9f:
        77:cf
-----BEGIN CERTIFICATE-----
MIIECjCCA3OgAwIBAgICFLEwDQYJKoZIhvcNAQEFBQAwgZsxCzAJBgNVBAYTAlVT
MQswCQYDVQQIEwJOWTERMA8GA1UEBxMITmV3IFlvcmsxFTATBgNVBAoTDEJsb29t
YmVyZyBMUDETMBEGA1UECxMKQ1RPIE9mZmljZTEYMBYGA1UEAxMPQmxvb21iZXJn
IExQIENBMSYwJAYJKoZIhvcNAQkBFhdvcGVuLXRlY2hAYmxvb21iZXJnLm5ldDAe
Fw0xNTA0MTcwNjAwMDBaFw0xNTA0MjEwNjAwMDBaMIGiMQswCQYDVQQGEwJVUzEL
MAkGA1UECBMCTlkxETAPBgNVBAcTCE5ldyBZb3JrMRUwEwYDVQQKEwxCbG9vbWJl
cmcgTFAxEzARBgNVBAsTCkNUTyBPZmZpY2UxHzAdBgNVBAMUFmhhY2tydV9zcHJp
bmdfMjAxNV8wNzUxJjAkBgkqhkiG9w0BCQEWF29wZW4tdGVjaEBibG9vbWJlcmcu
bmV0MIGfMA0GCSqGSIb3DQEBAQUAA4GNADCBiQKBgQDPI1Et9GVeHRFE2dLD92TL
QP+EpNvxbZ6/hJTUizEjZfV2pMxzm7a6Bb4UFB79WIeu/Gw3BVIZviS+k5bRMXMn
IrsVwaptHQEio4W7GeNrREUPTT3fiLUkxgn4h8j8WiDVXwEPTaiUtC5XJH20GD4U
c7vZ0u3WJAcgsWrDv04XywIDAQABo4IBUjCCAU4wCQYDVR0TBAIwADAtBglghkgB
hvhCAQ0EIBYeRWFzeS1SU0EgR2VuZXJhdGVkIENlcnRpZmljYXRlMB0GA1UdDgQW
BBQrkU6NdiNNtHKWRitXB1lm9GyX/jCB0AYDVR0jBIHIMIHFgBTzIXYf2rXnA/zt
13G4HFUtfmVfFKGBoaSBnjCBmzELMAkGA1UEBhMCVVMxCzAJBgNVBAgTAk5ZMREw
DwYDVQQHEwhOZXcgWW9yazEVMBMGA1UEChMMQmxvb21iZXJnIExQMRMwEQYDVQQL
EwpDVE8gT2ZmaWNlMRgwFgYDVQQDEw9CbG9vbWJlcmcgTFAgQ0ExJjAkBgkqhkiG
9w0BCQEWF29wZW4tdGVjaEBibG9vbWJlcmcubmV0ggkAgfN6HLzG6KIwEwYDVR0l
BAwwCgYIKwYBBQUHAwIwCwYDVR0PBAQDAgeAMA0GCSqGSIb3DQEBBQUAA4GBADX5
27kv/ojmBUGotP7vpxBSBv8e0sD2D1tmQOKYPR6GHsVUYbVXrRXL+ljZX1n6B56j
iOQTCn7+UtNfFyaJ/JHnp1ISzAfg33I3vfaL52wEcbZ+6fLuXdwwgW6G71+KSxm2
O4LGULEkc+cndeI7M5iT4KzrrPXSq7YZzsa/n3fP
-----END CERTIFICATE-----
